target datalayout = "e-m:e-p270:32:32-p271:32:32-p272:64:64-i64:64-i128:128-f80:128-n8:16:32:64-S128"
target triple = "x86_64-unknown-linux-gnu"

%"class.EA::UnitTest::TestCollection" = type { ptr, %"class.eastl::vector" }
%"class.eastl::vector" = type { %"struct.eastl::VectorBase" }
%"struct.eastl::VectorBase" = type { ptr, ptr, %"class.eastl::compressed_pair.0" }
%"class.eastl::compressed_pair.0" = type { %"class.eastl::compressed_pair_imp.1" }
%"class.eastl::compressed_pair_imp.1" = type { ptr }
%"struct.EA::UnitTest::TestCollection::TestInfo" = type { ptr, i8 }

; Function Attrs: mustprogress nounwind uwtable
define linkonce_odr dso_local noundef nonnull align 8 dereferenceable(16) ptr @_ZNK5eastl6vectorIN2EA8UnitTest14TestCollection8TestInfoENS_9allocatorEEixEm(ptr noundef nonnull align 8 dereferenceable(24) %this, i64 noundef %n) #1 comdat align 2 {
entry:
  %this.addr = alloca ptr, align 8
  %n.addr = alloca i64, align 8
  store ptr %this, ptr %this.addr, align 8
  store i64 %n, ptr %n.addr, align 8
  %this1 = load ptr, ptr %this.addr, align 8
  %mpBegin = getelementptr inbounds %"struct.eastl::VectorBase", ptr %this1, i32 0, i32 0
  %0 = load ptr, ptr %mpBegin, align 8
  %1 = load i64, ptr %n.addr, align 8
  %add.ptr = getelementptr inbounds %"struct.EA::UnitTest::TestCollection::TestInfo", ptr %0, i64 %1
  ret ptr %add.ptr
}

; Function Attrs: mustprogress nounwind uwtable
define linkonce_odr dso_local noundef i64 @_ZNK5eastl6vectorIN2EA8UnitTest14TestCollection8TestInfoENS_9allocatorEE4sizeEv(ptr noundef nonnull align 8 dereferenceable(24) %this) #1 comdat align 2 {
entry:
  %this.addr = alloca ptr, align 8
  store ptr %this, ptr %this.addr, align 8
  %this1 = load ptr, ptr %this.addr, align 8
  %mpEnd = getelementptr inbounds %"struct.eastl::VectorBase", ptr %this1, i32 0, i32 1
  %0 = load ptr, ptr %mpEnd, align 8
  %mpBegin = getelementptr inbounds %"struct.eastl::VectorBase", ptr %this1, i32 0, i32 0
  %1 = load ptr, ptr %mpBegin, align 8
  %sub.ptr.lhs.cast = ptrtoint ptr %0 to i64
  %sub.ptr.rhs.cast = ptrtoint ptr %1 to i64
  %sub.ptr.sub = sub i64 %sub.ptr.lhs.cast, %sub.ptr.rhs.cast
  %sub.ptr.div = sdiv exact i64 %sub.ptr.sub, 16
  ret i64 %sub.ptr.div
}

; Function Attrs: mustprogress uwtable
define dso_local noundef i64 @_ZNK2EA8UnitTest14TestCollection14EnumerateTestsEPPNS0_4TestEm(ptr noundef nonnull align 8 dereferenceable(32) %this, ptr noundef %pTestArray, i64 noundef %nTestArrayCapacity) unnamed_addr #2 align 2 {
entry:
  %this.addr = alloca ptr, align 8
  %pTestArray.addr = alloca ptr, align 8
  %nTestArrayCapacity.addr = alloca i64, align 8
  %i = alloca i64, align 8
  store ptr %this, ptr %this.addr, align 8
  store ptr %pTestArray, ptr %pTestArray.addr, align 8
  store i64 %nTestArrayCapacity, ptr %nTestArrayCapacity.addr, align 8
  %this1 = load ptr, ptr %this.addr, align 8
  %0 = load ptr, ptr %pTestArray.addr, align 8
  %tobool = icmp ne ptr %0, null
  br i1 %tobool, label %if.then, label %if.end8

if.then:                                          ; preds = %entry
  %1 = load i64, ptr %nTestArrayCapacity.addr, align 8
  %mTests = getelementptr inbounds %"class.EA::UnitTest::TestCollection", ptr %this1, i32 0, i32 1
  %call = call noundef i64 @_ZNK5eastl6vectorIN2EA8UnitTest14TestCollection8TestInfoENS_9allocatorEE4sizeEv(ptr noundef nonnull align 8 dereferenceable(24) %mTests) #13
  %cmp = icmp ugt i64 %1, %call
  br i1 %cmp, label %if.then2, label %if.end

if.then2:                                         ; preds = %if.then
  %mTests3 = getelementptr inbounds %"class.EA::UnitTest::TestCollection", ptr %this1, i32 0, i32 1
  %call4 = call noundef i64 @_ZNK5eastl6vectorIN2EA8UnitTest14TestCollection8TestInfoENS_9allocatorEE4sizeEv(ptr noundef nonnull align 8 dereferenceable(24) %mTests3) #13
  store i64 %call4, ptr %nTestArrayCapacity.addr, align 8
  br label %if.end

if.end:                                           ; preds = %if.then2, %if.then
  %2 = load ptr, ptr %pTestArray.addr, align 8
  %3 = load i64, ptr %nTestArrayCapacity.addr, align 8
  %mul = mul i64 %3, 8
  call void @llvm.memset.p0.i64(ptr align 8 %2, i8 0, i64 %mul, i1 false)
  store i64 0, ptr %i, align 8
  br label %for.cond

for.cond:                                         ; preds = %for.inc, %if.end
  %4 = load i64, ptr %i, align 8
  %5 = load i64, ptr %nTestArrayCapacity.addr, align 8
  %cmp5 = icmp ult i64 %4, %5
  br i1 %cmp5, label %for.body, label %for.end

for.body:                                         ; preds = %for.cond
  %mTests6 = getelementptr inbounds %"class.EA::UnitTest::TestCollection", ptr %this1, i32 0, i32 1
  %6 = load i64, ptr %i, align 8
  %call7 = call noundef nonnull align 8 dereferenceable(16) ptr @_ZNK5eastl6vectorIN2EA8UnitTest14TestCollection8TestInfoENS_9allocatorEEixEm(ptr noundef nonnull align 8 dereferenceable(24) %mTests6, i64 noundef %6)
  %mpTest = getelementptr inbounds %"struct.EA::UnitTest::TestCollection::TestInfo", ptr %call7, i32 0, i32 0
  %7 = load ptr, ptr %mpTest, align 8
  %8 = load ptr, ptr %pTestArray.addr, align 8
  %9 = load i64, ptr %i, align 8
  %arrayidx = getelementptr inbounds ptr, ptr %8, i64 %9
  store ptr %7, ptr %arrayidx, align 8
  br label %for.inc

for.inc:                                          ; preds = %for.body
  %10 = load i64, ptr %i, align 8
  %inc = add i64 %10, 1
  store i64 %inc, ptr %i, align 8
  br label %for.cond, !llvm.loop !14

for.end:                                          ; preds = %for.cond
  br label %if.end8

if.end8:                                          ; preds = %for.end, %entry
  %mTests9 = getelementptr inbounds %"class.EA::UnitTest::TestCollection", ptr %this1, i32 0, i32 1
  %call10 = call noundef i64 @_ZNK5eastl6vectorIN2EA8UnitTest14TestCollection8TestInfoENS_9allocatorEE4sizeEv(ptr noundef nonnull align 8 dereferenceable(24) %mTests9) #13
  ret i64 %call10
}