; Function Attrs: mustprogress nofree norecurse nosync nounwind memory(read, argmem: readwrite, inaccessiblemem: none) uwtable
define dso_local noundef i64 @_ZNK2EA8UnitTest14TestCollection14EnumerateTestsEPPNS0_4TestEm(ptr nocapture noundef nonnull readonly align 8 dereferenceable(32) %this, ptr noundef writeonly %pTestArray, i64 noundef %nTestArrayCapacity) unnamed_addr #19 align 2 {
entry:
  %tobool.not = icmp eq ptr %pTestArray, null
  br i1 %tobool.not, label %if.end8, label %if.then

if.then:                                          ; preds = %entry
  %mTests = getelementptr inbounds i8, ptr %this, i64 8
  %mpEnd.i = getelementptr inbounds i8, ptr %this, i64 16
  %0 = load ptr, ptr %mpEnd.i, align 8
  %1 = load ptr, ptr %mTests, align 8
  %sub.ptr.lhs.cast.i = ptrtoint ptr %0 to i64
  %sub.ptr.rhs.cast.i = ptrtoint ptr %1 to i64
  %sub.ptr.sub.i = sub i64 %sub.ptr.lhs.cast.i, %sub.ptr.rhs.cast.i
  %sub.ptr.div.i = ashr exact i64 %sub.ptr.sub.i, 4
  %spec.select = tail call i64 @llvm.umin.i64(i64 %sub.ptr.div.i, i64 %nTestArrayCapacity)
  %mul = shl i64 %spec.select, 3
  tail call void @llvm.memset.p0.i64(ptr nonnull align 8 %pTestArray, i8 0, i64 %mul, i1 false)
  %cmp518.not = icmp eq i64 %spec.select, 0
  br i1 %cmp518.not, label %if.end8, label %for.body

for.body:                                         ; preds = %if.then, %for.body
  %i.019 = phi i64 [ %inc, %for.body ], [ 0, %if.then ]
  %2 = load ptr, ptr %mTests, align 8
  %add.ptr.i = getelementptr inbounds %"struct.EA::UnitTest::TestCollection::TestInfo", ptr %2, i64 %i.019
  %3 = load ptr, ptr %add.ptr.i, align 8
  %arrayidx = getelementptr inbounds ptr, ptr %pTestArray, i64 %i.019
  store ptr %3, ptr %arrayidx, align 8
  %inc = add nuw i64 %i.019, 1
  %exitcond.not = icmp eq i64 %inc, %spec.select
  br i1 %exitcond.not, label %if.end8, label %for.body, !llvm.loop !16

if.end8:                                          ; preds = %for.body, %if.then, %entry
  %mTests9 = getelementptr inbounds i8, ptr %this, i64 8
  %mpEnd.i13 = getelementptr inbounds i8, ptr %this, i64 16
  %4 = load ptr, ptr %mpEnd.i13, align 8
  %5 = load ptr, ptr %mTests9, align 8
  %sub.ptr.lhs.cast.i14 = ptrtoint ptr %4 to i64
  %sub.ptr.rhs.cast.i15 = ptrtoint ptr %5 to i64
  %sub.ptr.sub.i16 = sub i64 %sub.ptr.lhs.cast.i14, %sub.ptr.rhs.cast.i15
  %sub.ptr.div.i17 = ashr exact i64 %sub.ptr.sub.i16, 4
  ret i64 %sub.ptr.div.i17
}